; Function Attrs: null_pointer_is_valid sspstrong uwtable
define void @oid_add_from_string(ptr noundef %0, ptr noundef %1) local_unnamed_addr #0 {
  %3 = alloca ptr, align 8
  call void @llvm.lifetime.start.p0(i64 8, ptr nonnull %3) #10
  %4 = call i32 @oid_string2subid(ptr noundef null, ptr noundef %1, ptr noundef nonnull %3)
  %.not = icmp eq i32 %4, 0
  br i1 %.not, label %29, label %5

5:                                                ; preds = %2
  %6 = load ptr, ptr %3, align 8
  %7 = icmp eq ptr %6, null
  br i1 %7, label %8, label %10

8:                                                ; preds = %5
  %9 = tail call noalias ptr @wmem_strdup(ptr noundef null, ptr noundef nonnull @.str.16)
  br label %oid_subid2string.exit

10:                                               ; preds = %5
  %11 = tail call noalias ptr @wmem_strbuf_new(ptr noundef null, ptr noundef nonnull @.str.17)
  br label %12

12:                                               ; preds = %12, %10
  %.015.i.i = phi i32 [ %4, %10 ], [ %15, %12 ]
  %.014.i.i = phi ptr [ %6, %10 ], [ %13, %12 ]
  %13 = getelementptr i8, ptr %.014.i.i, i64 4
  %14 = load i32, ptr %.014.i.i, align 4
  tail call void (ptr, ptr, ...) @wmem_strbuf_append_printf(ptr noundef %11, ptr noundef nonnull @.str.18, i32 noundef %14)
  %15 = add i32 %.015.i.i, -1
  %.not.i.i = icmp eq i32 %15, 0
  br i1 %.not.i.i, label %16, label %12, !llvm.loop !6

16:                                               ; preds = %12
  %17 = tail call i64 @wmem_strbuf_get_len(ptr noundef %11)
  %18 = add i64 %17, -1
  tail call void @wmem_strbuf_truncate(ptr noundef %11, i64 noundef %18)
  %19 = tail call ptr @wmem_strbuf_finalize(ptr noundef %11)
  br label %oid_subid2string.exit

oid_subid2string.exit:                            ; preds = %8, %16
  %.0.i.i = phi ptr [ %9, %8 ], [ %19, %16 ]
  %20 = load i32, ptr @debuglevel, align 4
  %21 = icmp sgt i32 %20, 2
  br i1 %21, label %22, label %28

22:                                               ; preds = %oid_subid2string.exit
  %.not13 = icmp eq ptr %0, null
  %23 = select i1 %.not13, ptr @.str.1, ptr %0
  %24 = tail call i32 (i32, ptr, ...) @__printf_chk(i32 noundef 2, ptr noundef nonnull @.str.4, ptr noundef nonnull %23, ptr noundef %.0.i.i)
  %25 = tail call i32 (i32, ptr, ...) @__printf_chk(i32 noundef 2, ptr noundef nonnull @.str.2)
  %26 = load ptr, ptr @stdout, align 8
  %27 = tail call i32 @fflush(ptr noundef %26)
  br label %28

28:                                               ; preds = %22, %oid_subid2string.exit
  tail call fastcc void @add_oid(ptr noundef %0, i32 noundef %4, ptr noundef %6)
  tail call void @wmem_free(ptr noundef null, ptr noundef %.0.i.i)
  br label %38

29:                                               ; preds = %2
  %30 = load i32, ptr @debuglevel, align 4
  %31 = icmp sgt i32 %30, 0
  br i1 %31, label %32, label %38

32:                                               ; preds = %29
  %.not12 = icmp eq ptr %0, null
  %33 = select i1 %.not12, ptr @.str.1, ptr %0
  %34 = tail call i32 (i32, ptr, ...) @__printf_chk(i32 noundef 2, ptr noundef nonnull @.str.5, ptr noundef nonnull %33, ptr noundef %1)
  %35 = tail call i32 (i32, ptr, ...) @__printf_chk(i32 noundef 2, ptr noundef nonnull @.str.2)
  %36 = load ptr, ptr @stdout, align 8
  %37 = tail call i32 @fflush(ptr noundef %36)
  br label %38

38:                                               ; preds = %29, %32, %28
  %39 = load ptr, ptr %3, align 8
  tail call void @wmem_free(ptr noundef null, ptr noundef %39)
  call void @llvm.lifetime.end.p0(i64 8, ptr nonnull %3) #10
  ret void
}